; Function Attrs: nounwind uwtable
define range(i32 0, 2) i32 @test_strn_eq(ptr noundef %0, i32 noundef %1, ptr noundef %2, ptr noundef %3, ptr noundef %4, i64 noundef %5, ptr noundef %6, i64 noundef %7) local_unnamed_addr #0 {
  %9 = icmp eq ptr %4, null
  %10 = icmp eq ptr %6, null
  %or.cond = and i1 %9, %10
  br i1 %or.cond, label %23, label %11

11:                                               ; preds = %8
  %12 = icmp ne i64 %5, %7
  %or.cond3 = or i1 %9, %12
  %or.cond5 = or i1 %10, %or.cond3
  br i1 %or.cond5, label %15, label %13

13:                                               ; preds = %11
  %14 = tail call i32 @strncmp(ptr noundef nonnull %4, ptr noundef nonnull %6, i64 noundef %5) #10
  %.not = icmp eq i32 %14, 0
  br i1 %.not, label %23, label %.thread

15:                                               ; preds = %11
  br i1 %9, label %17, label %.thread

.thread:                                          ; preds = %13, %15
  %16 = tail call i64 @OPENSSL_strnlen(ptr noundef nonnull %4, i64 noundef %5) #8
  br label %17

17:                                               ; preds = %15, %.thread
  %18 = phi i64 [ %16, %.thread ], [ 0, %15 ]
  br i1 %10, label %21, label %19

19:                                               ; preds = %17
  %20 = tail call i64 @OPENSSL_strnlen(ptr noundef nonnull %6, i64 noundef %7) #8
  br label %21

21:                                               ; preds = %17, %19
  %22 = phi i64 [ %20, %19 ], [ 0, %17 ]
  tail call void @test_fail_string_message(ptr noundef null, ptr noundef %0, i32 noundef %1, ptr noundef nonnull @.str.44, ptr noundef %2, ptr noundef %3, ptr noundef nonnull @.str.12, ptr noundef %4, i64 noundef %18, ptr noundef %6, i64 noundef %22) #8
  br label %23

23:                                               ; preds = %13, %8, %21
  %.0 = phi i32 [ 0, %21 ], [ 1, %8 ], [ 1, %13 ]
  ret i32 %.0
}